target datalayout = "e-m:e-p270:32:32-p271:32:32-p272:64:64-i64:64-i128:128-f80:128-n8:16:32:64-S128"
target triple = "x86_64-unknown-linux-gnu"

%"class.pbrt::Primitive" = type { %"class.pbrt::TaggedPointer.9" }
%"class.pbrt::TaggedPointer.9" = type { i64 }
%"class.std::vector" = type { %"struct.std::_Vector_base" }
%"struct.std::_Vector_base" = type { %"struct.std::_Vector_base<pbrt::Light, std::allocator<pbrt::Light>>::_Vector_impl" }
%"struct.std::_Vector_base<pbrt::Light, std::allocator<pbrt::Light>>::_Vector_impl" = type { %"struct.std::_Vector_base<pbrt::Light, std::allocator<pbrt::Light>>::_Vector_impl_data" }
%"struct.std::_Vector_base<pbrt::Light, std::allocator<pbrt::Light>>::_Vector_impl_data" = type { ptr, ptr, ptr }
%"class.pbrt::Integrator" = type { ptr, %"class.pbrt::Primitive", %"class.std::vector", %"class.std::vector" }

@_ZN4pbrtL12nShadowTestsE = internal thread_local global i64 0, align 8

; Function Attrs: mustprogress nounwind uwtable
define linkonce_odr dso_local noundef zeroext i1 @_ZNK4pbrt13TaggedPointerIJNS_15SimplePrimitiveENS_18GeometricPrimitiveENS_20TransformedPrimitiveENS_17AnimatedPrimitiveENS_12BVHAggregateENS_15KdTreeAggregateEEEcvbEv(ptr noundef nonnull align 8 dereferenceable(8) %this) #2 comdat align 2 {
entry:
  %this.addr = alloca ptr, align 8
  store ptr %this, ptr %this.addr, align 8
  %this1 = load ptr, ptr %this.addr, align 8
  %bits = getelementptr inbounds %"class.pbrt::TaggedPointer.9", ptr %this1, i32 0, i32 0
  %0 = load i64, ptr %bits, align 8
  %and = and i64 %0, 144115188075855871
  %cmp = icmp ne i64 %and, 0
  ret i1 %cmp
}

; Function Attrs: mustprogress uwtable
define dso_local noundef zeroext i1 @_ZNK4pbrt10Integrator10IntersectPERKNS_3RayEf(ptr noundef nonnull align 8 dereferenceable(64) %this, ptr noundef nonnull align 8 dereferenceable(40) %ray, float noundef %tMax) #1 align 2 {
entry:
  %retval = alloca i1, align 1
  %this.addr = alloca ptr, align 8
  %ray.addr = alloca ptr, align 8
  %tMax.addr = alloca float, align 4
  store ptr %this, ptr %this.addr, align 8
  store ptr %ray, ptr %ray.addr, align 8
  store float %tMax, ptr %tMax.addr, align 4
  %this1 = load ptr, ptr %this.addr, align 8
  %0 = call align 8 ptr @llvm.threadlocal.address.p0(ptr align 8 @_ZN4pbrtL12nShadowTestsE)
  %1 = load i64, ptr %0, align 8
  %inc = add nsw i64 %1, 1
  store i64 %inc, ptr %0, align 8
  br label %do.body

do.body:                                          ; preds = %entry
  br label %do.end

do.end:                                           ; preds = %do.body
  %aggregate = getelementptr inbounds %"class.pbrt::Integrator", ptr %this1, i32 0, i32 1
  %call = call noundef zeroext i1 @_ZNK4pbrt13TaggedPointerIJNS_15SimplePrimitiveENS_18GeometricPrimitiveENS_20TransformedPrimitiveENS_17AnimatedPrimitiveENS_12BVHAggregateENS_15KdTreeAggregateEEEcvbEv(ptr noundef nonnull align 8 dereferenceable(8) %aggregate)
  br i1 %call, label %if.then, label %if.else

if.then:                                          ; preds = %do.end
  %aggregate2 = getelementptr inbounds %"class.pbrt::Integrator", ptr %this1, i32 0, i32 1
  %2 = load ptr, ptr %ray.addr, align 8
  %3 = load float, ptr %tMax.addr, align 4
  %call3 = call noundef zeroext i1 @_ZNK4pbrt9Primitive10IntersectPERKNS_3RayEf(ptr noundef nonnull align 8 dereferenceable(8) %aggregate2, ptr noundef nonnull align 8 dereferenceable(40) %2, float noundef %3)
  store i1 %call3, ptr %retval, align 1
  br label %return

if.else:                                          ; preds = %do.end
  store i1 false, ptr %retval, align 1
  br label %return

return:                                           ; preds = %if.else, %if.then
  %4 = load i1, ptr %retval, align 1
  ret i1 %4
}