; Function Attrs: mustprogress uwtable
define dso_local noundef zeroext i1 @_ZNK4pbrt10Integrator10IntersectPERKNS_3RayEf(ptr noundef nonnull align 8 dereferenceable(64) %this, ptr noundef nonnull align 8 dereferenceable(40) %ray, float noundef %tMax) local_unnamed_addr #1 align 2 {
entry:
  %0 = tail call align 8 ptr @llvm.threadlocal.address.p0(ptr align 8 @_ZN4pbrtL12nShadowTestsE)
  %1 = load i64, ptr %0, align 8
  %inc = add nsw i64 %1, 1
  store i64 %inc, ptr %0, align 8
  %aggregate = getelementptr inbounds i8, ptr %this, i64 8
  %2 = load i64, ptr %aggregate, align 8
  %and.i = and i64 %2, 144115188075855871
  %cmp.i.not = icmp eq i64 %and.i, 0
  br i1 %cmp.i.not, label %return, label %if.then

if.then:                                          ; preds = %entry
  %call3 = tail call noundef zeroext i1 @_ZNK4pbrt9Primitive10IntersectPERKNS_3RayEf(ptr noundef nonnull align 8 dereferenceable(8) %aggregate, ptr noundef nonnull align 8 dereferenceable(40) %ray, float noundef %tMax)
  br label %return

return:                                           ; preds = %entry, %if.then
  %retval.0 = phi i1 [ %call3, %if.then ], [ false, %entry ]
  ret i1 %retval.0
}